; ModuleID = '2/146.c'
source_filename = "2/146.c"
target datalayout = "e-m:e-p270:32:32-p271:32:32-p272:64:64-i64:64-f80:128-n8:16:32:64-S128"
target triple = "x86_64-pc-linux-gnu"

%struct.book = type { i32, [26 x i8], %struct.book* }

@.str = private unnamed_addr constant [3 x i8] c"%d\00", align 1
@.str.1 = private unnamed_addr constant [5 x i8] c"%d%s\00", align 1
@.str.2 = private unnamed_addr constant [7 x i8] c"%c\0A%d\0A\00", align 1
@.str.3 = private unnamed_addr constant [4 x i8] c"%d\0A\00", align 1

; Function Attrs: noinline nounwind uwtable
define dso_local void @main(%struct.book* noalias sret %0) #0 {
  %2 = alloca i32, align 4
  %3 = alloca i32, align 4
  %4 = alloca i32, align 4
  %5 = alloca [26 x i32], align 16
  %6 = alloca [26 x i32], align 16
  %7 = alloca i32, align 4
  %8 = alloca i32, align 4
  %9 = alloca %struct.book*, align 8
  %10 = alloca %struct.book*, align 8
  %11 = alloca %struct.book*, align 8
  %12 = bitcast [26 x i32]* %5 to i8*
  call void @llvm.memset.p0i8.i64(i8* align 16 %12, i8 0, i64 104, i1 false)
  %13 = call i32 (i8*, ...) @__isoc99_scanf(i8* getelementptr inbounds ([3 x i8], [3 x i8]* @.str, i64 0, i64 0), i32* %2)
  %14 = call noalias i8* @malloc(i64 100) #5
  %15 = bitcast i8* %14 to %struct.book*
  store %struct.book* %15, %struct.book** %11, align 8
  store %struct.book* %15, %struct.book** %10, align 8
  store i32 0, i32* %3, align 4
  br label %16

16:                                               ; preds = %63, %1
  %17 = load i32, i32* %3, align 4
  %18 = load i32, i32* %2, align 4
  %19 = icmp slt i32 %17, %18
  br i1 %19, label %20, label %66

20:                                               ; preds = %16
  %21 = load %struct.book*, %struct.book** %10, align 8
  %22 = getelementptr inbounds %struct.book, %struct.book* %21, i32 0, i32 0
  %23 = load %struct.book*, %struct.book** %10, align 8
  %24 = getelementptr inbounds %struct.book, %struct.book* %23, i32 0, i32 1
  %25 = call i32 (i8*, ...) @__isoc99_scanf(i8* getelementptr inbounds ([5 x i8], [5 x i8]* @.str.1, i64 0, i64 0), i32* %22, [26 x i8]* %24)
  store i32 0, i32* %4, align 4
  br label %26

26:                                               ; preds = %47, %20
  %27 = load i32, i32* %4, align 4
  %28 = sext i32 %27 to i64
  %29 = load %struct.book*, %struct.book** %10, align 8
  %30 = getelementptr inbounds %struct.book, %struct.book* %29, i32 0, i32 1
  %31 = getelementptr inbounds [26 x i8], [26 x i8]* %30, i64 0, i64 0
  %32 = call i64 @strlen(i8* %31) #6
  %33 = icmp ult i64 %28, %32
  br i1 %33, label %34, label %50

34:                                               ; preds = %26
  %35 = load %struct.book*, %struct.book** %10, align 8
  %36 = getelementptr inbounds %struct.book, %struct.book* %35, i32 0, i32 1
  %37 = load i32, i32* %4, align 4
  %38 = sext i32 %37 to i64
  %39 = getelementptr inbounds [26 x i8], [26 x i8]* %36, i64 0, i64 %38
  %40 = load i8, i8* %39, align 1
  %41 = sext i8 %40 to i32
  %42 = sub nsw i32 %41, 65
  %43 = sext i32 %42 to i64
  %44 = getelementptr inbounds [26 x i32], [26 x i32]* %5, i64 0, i64 %43
  %45 = load i32, i32* %44, align 4
  %46 = add nsw i32 %45, 1
  store i32 %46, i32* %44, align 4
  br label %47

47:                                               ; preds = %34
  %48 = load i32, i32* %4, align 4
  %49 = add nsw i32 %48, 1
  store i32 %49, i32* %4, align 4
  br label %26

50:                                               ; preds = %26
  %51 = load i32, i32* %3, align 4
  %52 = icmp eq i32 %51, 0
  br i1 %52, label %53, label %55

53:                                               ; preds = %50
  %54 = load %struct.book*, %struct.book** %10, align 8
  store %struct.book* %54, %struct.book** %9, align 8
  br label %59

55:                                               ; preds = %50
  %56 = load %struct.book*, %struct.book** %10, align 8
  %57 = load %struct.book*, %struct.book** %11, align 8
  %58 = getelementptr inbounds %struct.book, %struct.book* %57, i32 0, i32 2
  store %struct.book* %56, %struct.book** %58, align 8
  br label %59

59:                                               ; preds = %55, %53
  %60 = load %struct.book*, %struct.book** %10, align 8
  store %struct.book* %60, %struct.book** %11, align 8
  %61 = call noalias i8* @malloc(i64 100) #5
  %62 = bitcast i8* %61 to %struct.book*
  store %struct.book* %62, %struct.book** %10, align 8
  br label %63

63:                                               ; preds = %59
  %64 = load i32, i32* %3, align 4
  %65 = add nsw i32 %64, 1
  store i32 %65, i32* %3, align 4
  br label %16

66:                                               ; preds = %16
  %67 = load %struct.book*, %struct.book** %11, align 8
  %68 = getelementptr inbounds %struct.book, %struct.book* %67, i32 0, i32 2
  store %struct.book* null, %struct.book** %68, align 8
  store i32 0, i32* %3, align 4
  br label %69

69:                                               ; preds = %77, %66
  %70 = load i32, i32* %3, align 4
  %71 = icmp slt i32 %70, 26
  br i1 %71, label %72, label %80

72:                                               ; preds = %69
  %73 = load i32, i32* %3, align 4
  %74 = load i32, i32* %3, align 4
  %75 = sext i32 %74 to i64
  %76 = getelementptr inbounds [26 x i32], [26 x i32]* %6, i64 0, i64 %75
  store i32 %73, i32* %76, align 4
  br label %77

77:                                               ; preds = %72
  %78 = load i32, i32* %3, align 4
  %79 = add nsw i32 %78, 1
  store i32 %79, i32* %3, align 4
  br label %69

80:                                               ; preds = %69
  store i32 0, i32* %3, align 4
  br label %81

81:                                               ; preds = %141, %80
  %82 = load i32, i32* %3, align 4
  %83 = icmp slt i32 %82, 25
  br i1 %83, label %84, label %144

84:                                               ; preds = %81
  store i32 0, i32* %4, align 4
  br label %85

85:                                               ; preds = %137, %84
  %86 = load i32, i32* %4, align 4
  %87 = load i32, i32* %3, align 4
  %88 = sub nsw i32 25, %87
  %89 = icmp slt i32 %86, %88
  br i1 %89, label %90, label %140

90:                                               ; preds = %85
  %91 = load i32, i32* %4, align 4
  %92 = sext i32 %91 to i64
  %93 = getelementptr inbounds [26 x i32], [26 x i32]* %5, i64 0, i64 %92
  %94 = load i32, i32* %93, align 4
  %95 = load i32, i32* %4, align 4
  %96 = add nsw i32 %95, 1
  %97 = sext i32 %96 to i64
  %98 = getelementptr inbounds [26 x i32], [26 x i32]* %5, i64 0, i64 %97
  %99 = load i32, i32* %98, align 4
  %100 = icmp slt i32 %94, %99
  br i1 %100, label %101, label %136

101:                                              ; preds = %90
  %102 = load i32, i32* %4, align 4
  %103 = sext i32 %102 to i64
  %104 = getelementptr inbounds [26 x i32], [26 x i32]* %6, i64 0, i64 %103
  %105 = load i32, i32* %104, align 4
  store i32 %105, i32* %7, align 4
  %106 = load i32, i32* %4, align 4
  %107 = add nsw i32 %106, 1
  %108 = sext i32 %107 to i64
  %109 = getelementptr inbounds [26 x i32], [26 x i32]* %6, i64 0, i64 %108
  %110 = load i32, i32* %109, align 4
  %111 = load i32, i32* %4, align 4
  %112 = sext i32 %111 to i64
  %113 = getelementptr inbounds [26 x i32], [26 x i32]* %6, i64 0, i64 %112
  store i32 %110, i32* %113, align 4
  %114 = load i32, i32* %7, align 4
  %115 = load i32, i32* %4, align 4
  %116 = add nsw i32 %115, 1
  %117 = sext i32 %116 to i64
  %118 = getelementptr inbounds [26 x i32], [26 x i32]* %6, i64 0, i64 %117
  store i32 %114, i32* %118, align 4
  %119 = load i32, i32* %4, align 4
  %120 = sext i32 %119 to i64
  %121 = getelementptr inbounds [26 x i32], [26 x i32]* %5, i64 0, i64 %120
  %122 = load i32, i32* %121, align 4
  store i32 %122, i32* %8, align 4
  %123 = load i32, i32* %4, align 4
  %124 = add nsw i32 %123, 1
  %125 = sext i32 %124 to i64
  %126 = getelementptr inbounds [26 x i32], [26 x i32]* %5, i64 0, i64 %125
  %127 = load i32, i32* %126, align 4
  %128 = load i32, i32* %4, align 4
  %129 = sext i32 %128 to i64
  %130 = getelementptr inbounds [26 x i32], [26 x i32]* %5, i64 0, i64 %129
  store i32 %127, i32* %130, align 4
  %131 = load i32, i32* %8, align 4
  %132 = load i32, i32* %4, align 4
  %133 = add nsw i32 %132, 1
  %134 = sext i32 %133 to i64
  %135 = getelementptr inbounds [26 x i32], [26 x i32]* %5, i64 0, i64 %134
  store i32 %131, i32* %135, align 4
  br label %136

136:                                              ; preds = %101, %90
  br label %137

137:                                              ; preds = %136
  %138 = load i32, i32* %4, align 4
  %139 = add nsw i32 %138, 1
  store i32 %139, i32* %4, align 4
  br label %85

140:                                              ; preds = %85
  br label %141

141:                                              ; preds = %140
  %142 = load i32, i32* %3, align 4
  %143 = add nsw i32 %142, 1
  store i32 %143, i32* %3, align 4
  br label %81

144:                                              ; preds = %81
  %145 = getelementptr inbounds [26 x i32], [26 x i32]* %6, i64 0, i64 0
  %146 = load i32, i32* %145, align 16
  %147 = add nsw i32 %146, 65
  %148 = getelementptr inbounds [26 x i32], [26 x i32]* %5, i64 0, i64 0
  %149 = load i32, i32* %148, align 16
  %150 = call i32 (i8*, ...) @printf(i8* getelementptr inbounds ([7 x i8], [7 x i8]* @.str.2, i64 0, i64 0), i32 %147, i32 %149)
  store i32 0, i32* %3, align 4
  br label %151

151:                                              ; preds = %191, %144
  %152 = load i32, i32* %3, align 4
  %153 = load i32, i32* %2, align 4
  %154 = icmp slt i32 %152, %153
  br i1 %154, label %155, label %194

155:                                              ; preds = %151
  store i32 0, i32* %4, align 4
  br label %156

156:                                              ; preds = %184, %155
  %157 = load i32, i32* %4, align 4
  %158 = sext i32 %157 to i64
  %159 = load %struct.book*, %struct.book** %9, align 8
  %160 = getelementptr inbounds %struct.book, %struct.book* %159, i32 0, i32 1
  %161 = getelementptr inbounds [26 x i8], [26 x i8]* %160, i64 0, i64 0
  %162 = call i64 @strlen(i8* %161) #6
  %163 = icmp ult i64 %158, %162
  br i1 %163, label %164, label %187

164:                                              ; preds = %156
  %165 = load %struct.book*, %struct.book** %9, align 8
  %166 = getelementptr inbounds %struct.book, %struct.book* %165, i32 0, i32 1
  %167 = load i32, i32* %4, align 4
  %168 = sext i32 %167 to i64
  %169 = getelementptr inbounds [26 x i8], [26 x i8]* %166, i64 0, i64 %168
  %170 = load i8, i8* %169, align 1
  %171 = sext i8 %170 to i32
  %172 = getelementptr inbounds [26 x i32], [26 x i32]* %6, i64 0, i64 0
  %173 = load i32, i32* %172, align 16
  %174 = trunc i32 %173 to i8
  %175 = sext i8 %174 to i32
  %176 = add nsw i32 %175, 65
  %177 = icmp eq i32 %171, %176
  br i1 %177, label %178, label %183

178:                                              ; preds = %164
  %179 = load %struct.book*, %struct.book** %9, align 8
  %180 = getelementptr inbounds %struct.book, %struct.book* %179, i32 0, i32 0
  %181 = load i32, i32* %180, align 8
  %182 = call i32 (i8*, ...) @printf(i8* getelementptr inbounds ([4 x i8], [4 x i8]* @.str.3, i64 0, i64 0), i32 %181)
  br label %187

183:                                              ; preds = %164
  br label %184

184:                                              ; preds = %183
  %185 = load i32, i32* %4, align 4
  %186 = add nsw i32 %185, 1
  store i32 %186, i32* %4, align 4
  br label %156

187:                                              ; preds = %178, %156
  %188 = load %struct.book*, %struct.book** %9, align 8
  %189 = getelementptr inbounds %struct.book, %struct.book* %188, i32 0, i32 2
  %190 = load %struct.book*, %struct.book** %189, align 8
  store %struct.book* %190, %struct.book** %9, align 8
  br label %191

191:                                              ; preds = %187
  %192 = load i32, i32* %3, align 4
  %193 = add nsw i32 %192, 1
  store i32 %193, i32* %3, align 4
  br label %151

194:                                              ; preds = %151
  ret void
}

; Function Attrs: argmemonly nounwind willreturn
declare void @llvm.memset.p0i8.i64(i8* nocapture writeonly, i8, i64, i1 immarg) #1

declare dso_local i32 @__isoc99_scanf(i8*, ...) #2

; Function Attrs: nounwind
declare dso_local noalias i8* @malloc(i64) #3

; Function Attrs: nounwind readonly
declare dso_local i64 @strlen(i8*) #4

declare dso_local i32 @printf(i8*, ...) #2


!llvm.module.flags = !{!0}
!llvm.ident = !{!1}

!0 = !{i32 1, !"wchar_size", i32 4}
!1 = !{!"clang version 10.0.0-4ubuntu1 "}
